; Function Attrs: mustprogress uwtable
define void @_ZN15MainApplication15flushAppSignalsEv(ptr noundef nonnull align 8 dereferenceable(216) %0) local_unnamed_addr #3 align 2 personality ptr @__gxx_personality_v0 {
  %2 = getelementptr inbounds i8, ptr %0, i64 168
  %3 = getelementptr inbounds i8, ptr %0, i64 184
  %4 = load i64, ptr %3, align 8
  %5 = icmp eq i64 %4, 0
  br i1 %5, label %._crit_edge, label %.lr.ph

.lr.ph:                                           ; preds = %1
  %6 = getelementptr inbounds i8, ptr %0, i64 176
  br label %7

7:                                                ; preds = %.lr.ph, %_ZN5QListIN15MainApplication9AppSignalEE9takeFirstEv.exit
  %8 = phi i64 [ %4, %.lr.ph ], [ %18, %_ZN5QListIN15MainApplication9AppSignalEE9takeFirstEv.exit ]
  %9 = load ptr, ptr @mainApp, align 8
  %10 = load ptr, ptr %2, align 8
  %.not.i.i.i.i.i.i = icmp eq ptr %10, null
  br i1 %.not.i.i.i.i.i.i, label %_ZNK17QArrayDataPointerIN15MainApplication9AppSignalEE11needsDetachEv.exit.thread.i.i.i.i.i, label %_ZNK17QArrayDataPointerIN15MainApplication9AppSignalEE11needsDetachEv.exit.i.i.i.i.i

_ZNK17QArrayDataPointerIN15MainApplication9AppSignalEE11needsDetachEv.exit.i.i.i.i.i: ; preds = %7
  %11 = load atomic i32, ptr %10 monotonic, align 4
  %12 = icmp sgt i32 %11, 1
  br i1 %12, label %_ZNK17QArrayDataPointerIN15MainApplication9AppSignalEE11needsDetachEv.exit.thread.i.i.i.i.i, label %_ZN5QListIN15MainApplication9AppSignalEE9takeFirstEv.exit

_ZNK17QArrayDataPointerIN15MainApplication9AppSignalEE11needsDetachEv.exit.thread.i.i.i.i.i: ; preds = %_ZNK17QArrayDataPointerIN15MainApplication9AppSignalEE11needsDetachEv.exit.i.i.i.i.i, %7
  tail call void @_ZN17QArrayDataPointerIN15MainApplication9AppSignalEE17reallocateAndGrowEN10QArrayData14GrowthPositionExPS2_(ptr noundef nonnull align 8 dereferenceable(24) %2, i32 noundef 0, i64 noundef 0, ptr noundef null)
  %.pre = load i64, ptr %3, align 8
  br label %_ZN5QListIN15MainApplication9AppSignalEE9takeFirstEv.exit

_ZN5QListIN15MainApplication9AppSignalEE9takeFirstEv.exit: ; preds = %_ZNK17QArrayDataPointerIN15MainApplication9AppSignalEE11needsDetachEv.exit.i.i.i.i.i, %_ZNK17QArrayDataPointerIN15MainApplication9AppSignalEE11needsDetachEv.exit.thread.i.i.i.i.i
  %13 = phi i64 [ %8, %_ZNK17QArrayDataPointerIN15MainApplication9AppSignalEE11needsDetachEv.exit.i.i.i.i.i ], [ %.pre, %_ZNK17QArrayDataPointerIN15MainApplication9AppSignalEE11needsDetachEv.exit.thread.i.i.i.i.i ]
  %14 = load ptr, ptr %6, align 8
  %15 = load i32, ptr %14, align 4
  %16 = getelementptr i8, ptr %14, i64 4
  store ptr %16, ptr %6, align 8
  %17 = add i64 %13, -1
  store i64 %17, ptr %3, align 8
  tail call void @_ZN15MainApplication13emitAppSignalENS_9AppSignalE(ptr noundef nonnull align 8 dereferenceable(216) %9, i32 noundef %15)
  %18 = load i64, ptr %3, align 8
  %19 = icmp eq i64 %18, 0
  br i1 %19, label %._crit_edge, label %7, !llvm.loop !41

._crit_edge:                                      ; preds = %_ZN5QListIN15MainApplication9AppSignalEE9takeFirstEv.exit, %1
  ret void
}